target datalayout = "e-m:e-p270:32:32-p271:32:32-p272:64:64-i64:64-i128:128-f80:128-n8:16:32:64-S128"
target triple = "x86_64-pc-linux-gnu"

%class.V3GraphVertex = type { ptr, %class.V3ListLinks, %class.V3List.12, %class.V3List.13, double, i32, i32, %union.anon.14 }
%class.V3ListLinks = type { ptr, ptr }
%class.V3List.12 = type { ptr, ptr }
%class.V3List.13 = type { ptr, ptr }
%union.anon.14 = type { ptr }
%"class.V3Sched::(anonymous namespace)::SchedAcyclicVarVertex" = type { %class.V3GraphVertex, ptr }

; Function Attrs: mustprogress uwtable
define internal void @_ZN7V3Sched12_GLOBAL__N_121SchedAcyclicVarVertexC2EP7V3GraphP11AstVarScope(ptr noundef nonnull align 8 dereferenceable(88) %0, ptr noundef %1, ptr noundef %2) unnamed_addr #4 align 2 {
  %4 = alloca ptr, align 8
  %5 = alloca ptr, align 8
  %6 = alloca ptr, align 8
  store ptr %0, ptr %4, align 8, !tbaa !61
  store ptr %1, ptr %5, align 8, !tbaa !47
  store ptr %2, ptr %6, align 8, !tbaa !69
  %7 = load ptr, ptr %4, align 8
  %8 = load ptr, ptr %5, align 8, !tbaa !47
  call void @_ZN13V3GraphVertexC2EP7V3Graph(ptr noundef nonnull align 8 dereferenceable(80) %7, ptr noundef %8)
  store ptr getelementptr inbounds inrange(-16, 104) ({ [15 x ptr] }, ptr @_ZTVN7V3Sched12_GLOBAL__N_121SchedAcyclicVarVertexE, i32 0, i32 0, i32 2), ptr %7, align 8, !tbaa !89
  %9 = getelementptr inbounds nuw %"class.V3Sched::(anonymous namespace)::SchedAcyclicVarVertex", ptr %7, i32 0, i32 1
  %10 = load ptr, ptr %6, align 8, !tbaa !69
  store ptr %10, ptr %9, align 8, !tbaa !132
  ret void
}

; Function Attrs: mustprogress nounwind uwtable
define internal noundef ptr @_ZNK7V3Sched12_GLOBAL__N_121SchedAcyclicVarVertex4vscpEv(ptr noundef nonnull align 8 dereferenceable(88) %0) #6 align 2 {
  %2 = alloca ptr, align 8
  store ptr %0, ptr %2, align 8, !tbaa !61
  %3 = load ptr, ptr %2, align 8
  %4 = getelementptr inbounds nuw %"class.V3Sched::(anonymous namespace)::SchedAcyclicVarVertex", ptr %3, i32 0, i32 1
  %5 = load ptr, ptr %4, align 8, !tbaa !132
  ret ptr %5
}

; Function Attrs: mustprogress uwtable
define internal noundef ptr @_ZNK7V3Sched12_GLOBAL__N_121SchedAcyclicVarVertex5cloneEP7V3Graph(ptr noundef nonnull align 8 dereferenceable(88) %0, ptr noundef %1) unnamed_addr #4 align 2 personality ptr @__gxx_personality_v0 {
  %3 = alloca ptr, align 8
  %4 = alloca ptr, align 8
  %5 = alloca ptr, align 8
  %6 = alloca i32, align 4
  store ptr %0, ptr %3, align 8, !tbaa !61
  store ptr %1, ptr %4, align 8, !tbaa !47
  %7 = load ptr, ptr %3, align 8
  %8 = call noalias noundef nonnull ptr @_Znwm(i64 noundef 88) #23
  %9 = load ptr, ptr %4, align 8, !tbaa !47
  %10 = call noundef ptr @_ZNK7V3Sched12_GLOBAL__N_121SchedAcyclicVarVertex4vscpEv(ptr noundef nonnull align 8 dereferenceable(88) %7)
  invoke void @_ZN7V3Sched12_GLOBAL__N_121SchedAcyclicVarVertexC2EP7V3GraphP11AstVarScope(ptr noundef nonnull align 8 dereferenceable(88) %8, ptr noundef %9, ptr noundef %10)
          to label %11 unwind label %12

11:                                               ; preds = %2
  ret ptr %8

12:                                               ; preds = %2
  %13 = landingpad { ptr, i32 }
          cleanup
  %14 = extractvalue { ptr, i32 } %13, 0
  store ptr %14, ptr %5, align 8
  %15 = extractvalue { ptr, i32 } %13, 1
  store i32 %15, ptr %6, align 4
  call void @_ZdlPvm(ptr noundef %8, i64 noundef 88) #24
  br label %16

16:                                               ; preds = %12
  %17 = load ptr, ptr %5, align 8
  %18 = load i32, ptr %6, align 4
  %19 = insertvalue { ptr, i32 } poison, ptr %17, 0
  %20 = insertvalue { ptr, i32 } %19, i32 %18, 1
  resume { ptr, i32 } %20
}