; Function Attrs: mustprogress uwtable
define internal noundef nonnull ptr @_ZNK7V3Sched12_GLOBAL__N_121SchedAcyclicVarVertex5cloneEP7V3Graph(ptr noundef nonnull readonly align 8 captures(none) dereferenceable(88) %0, ptr noundef %1) unnamed_addr #3 align 2 personality ptr @__gxx_personality_v0 {
  %3 = tail call noalias noundef nonnull dereferenceable(88) ptr @_Znwm(i64 noundef 88) #30
  %4 = getelementptr inbounds nuw i8, ptr %0, i64 80
  %.val = load ptr, ptr %4, align 8, !tbaa !85
  invoke void @_ZN13V3GraphVertexC2EP7V3Graph(ptr noundef nonnull align 8 dereferenceable(88) %3, ptr noundef %1)
          to label %5 unwind label %7

5:                                                ; preds = %2
  store ptr getelementptr inbounds nuw inrange(-16, 104) (i8, ptr @_ZTVN7V3Sched12_GLOBAL__N_121SchedAcyclicVarVertexE, i64 16), ptr %3, align 8, !tbaa !7
  %6 = getelementptr inbounds nuw i8, ptr %3, i64 80
  store ptr %.val, ptr %6, align 8, !tbaa !85
  ret ptr %3

7:                                                ; preds = %2
  %8 = landingpad { ptr, i32 }
          cleanup
  tail call void @_ZdlPvm(ptr noundef nonnull %3, i64 noundef 88) #32
  resume { ptr, i32 } %8
}